; Function Attrs: mustprogress nofree norecurse nosync nounwind willreturn memory(read, inaccessiblemem: none) uwtable
define hidden i64 @mi_usable_size(ptr noundef %0) #4 {
  %2 = ptrtoint ptr %0 to i64
  %3 = add i64 %2, -1
  %4 = and i64 %3, -4194304
  %5 = icmp slt i64 %3, 4194304
  %6 = icmp eq i64 %4, 0
  %7 = or i1 %5, %6
  br i1 %7, label %_mi_usable_size.exit, label %8, !prof !17

8:                                                ; preds = %1
  %9 = inttoptr i64 %4 to ptr
  %10 = sub i64 %2, %4
  %11 = getelementptr inbounds nuw i8, ptr %9, i64 144
  %12 = load i64, ptr %11, align 16, !tbaa !22
  %13 = lshr i64 %10, %12
  %14 = getelementptr inbounds nuw i8, ptr %9, i64 160
  %15 = getelementptr inbounds nuw [1 x %struct.mi_page_s], ptr %14, i64 0, i64 %13
  %16 = getelementptr i8, ptr %15, i64 6
  %.val.i = load i8, ptr %16, align 2
  %17 = and i8 %.val.i, 2
  %.not.i = icmp eq i8 %17, 0
  br i1 %.not.i, label %18, label %20, !prof !8

18:                                               ; preds = %8
  %19 = getelementptr i8, ptr %15, i64 32
  %.val12.i = load i64, ptr %19, align 16, !tbaa !21
  br label %_mi_usable_size.exit

20:                                               ; preds = %8
  %21 = tail call fastcc i64 @mi_page_usable_aligned_size_of(ptr noundef nonnull %15, ptr noundef %0) #20
  br label %_mi_usable_size.exit

_mi_usable_size.exit:                             ; preds = %1, %18, %20
  %.0.i = phi i64 [ 0, %1 ], [ %.val12.i, %18 ], [ %21, %20 ]
  ret i64 %.0.i
}